(dp0
VThirdParty_Info_Period1_1
p1
(lp2
I-1
asVThirdParty_Info_Period1_3
p3
(lp4
I-1
asVThirdParty_Info_Period1_2
p5
(lp6
I-1
asVThirdParty_Info_Period1_5
p7
(lp8
I-1
aF96.0
aF235.0
asVThirdParty_Info_Period1_4
p9
(lp10
I-1
asVThirdParty_Info_Period1_7
p11
(lp12
I-1
aF760.0
asVThirdParty_Info_Period1_6
p13
(lp14
I-1
asVThirdParty_Info_Period1_9
p15
(lp16
I-1
aL38L
asVThirdParty_Info_Period1_8
p17
(lp18
I-1
asVLogInfo1_150_avg_count
p19
(lp20
F2.333333333333333
aF8.6
aF19.571428571428573
asVThirdParty_Info_Period7_3
p21
(lp22
I-1
aF195.0
asVThirdParty_Info_Period7_2
p23
(lp24
I-1
asVThirdParty_Info_Period7_1
p25
(lp26
I-1
aF57.0
asVUserupdateInfo_7_PHONE
p27
(lp28
F48238.0
asVThirdParty_Info_Period7_7
p29
(lp30
I-1
asVThirdParty_Info_Period7_6
p31
(lp32
I-1
asVThirdParty_Info_Period7_5
p33
(lp34
I-1
asVThirdParty_Info_Period7_4
p35
(lp36
I-1
asVThirdParty_Info_Period3_17
p37
(lp38
I-1
asVThirdParty_Info_Period3_16
p39
(lp40
I-1
asVThirdParty_Info_Period3_15
p41
(lp42
I-1
asVThirdParty_Info_Period3_14
p43
(lp44
I-1
aF13531.0
asVThirdParty_Info_Period3_13
p45
(lp46
I-1
asVThirdParty_Info_Period3_12
p47
(lp48
I-1
asVThirdParty_Info_Period3_11
p49
(lp50
I-1
asVThirdParty_Info_Period3_10
p51
(lp52
I-1
aL0L
aL3L
aL7L
asVUserupdateInfo_150_PHONE
p53
(lp54
F41883.0
asVSocialNetwork_10
p55
(lp56
I-1
asVLogInfo2_90_unique
p57
(lp58
F4.0
asS'WeblogInfo_56_encoding'
p59
(lp60
F0.0
aF0.07282998443948312
aF0.08333333333333333
aF0.09620991253644315
asVLogInfo2_90_avg_count
p61
(lp62
F3.333333333333333
aF5.9
aF12.777777777777779
aF19.5
asS'UserInfo_9_encoding'
p63
(lp64
F0.0630048465266559
aF0.07157160390155674
aF0.07531194295900179
aF0.07863849765258216
asVLogInfo2_7_avg_count
p65
(lp66
F2.625
aF6.142857142857142
aF10.333333333333334
aF19.33333333333333
asVUserupdateInfo_7_unique
p67
(lp68
F46873.0
asVThirdParty_Info_Period3_9
p69
(lp70
I-1
aL6L
aL19L
aL61L
asVThirdParty_Info_Period3_8
p71
(lp72
I-1
asVThirdParty_Info_Period3_7
p73
(lp74
I-1
asVThirdParty_Info_Period2_2
p75
(lp76
I-1
asVThirdParty_Info_Period3_5
p77
(lp78
I-1
aF150.0
asVThirdParty_Info_Period3_4
p79
(lp80
I-1
asVThirdParty_Info_Period3_3
p81
(lp82
I-1
asVThirdParty_Info_Period3_2
p83
(lp84
I-1
asVThirdParty_Info_Period3_1
p85
(lp86
I-1
asVThirdParty_Info_Period6_13
p87
(lp88
I-1
asVThirdParty_Info_Period4_16
p89
(lp90
I-1
asVThirdParty_Info_Period4_17
p91
(lp92
I-1
asVThirdParty_Info_Period4_14
p93
(lp94
I-1
aF6637.0
asVThirdParty_Info_Period4_15
p95
(lp96
I-1
asVThirdParty_Info_Period4_12
p97
(lp98
I-1
aF64.0
asVThirdParty_Info_Period4_13
p99
(lp100
I-1
asVThirdParty_Info_Period4_10
p101
(lp102
I-1
aL0L
aL2L
aL5L
asVThirdParty_Info_Period4_11
p103
(lp104
I-1
asS'WeblogInfo_51_encoding'
p105
(lp106
F0.0
aF0.0729068673565381
aF0.10638297872340426
aF0.14285714285714285
asVUserupdateInfo_7_freq
p107
(lp108
F26.0
asVLogInfo1_120_count
p109
(lp110
F75.0
asVLogInfo1_150_unique
p111
(lp112
F3.0
aF9.0
asS'WeblogInfo_50_encoding'
p113
(lp114
F0.0
aF0.07278906986135415
aF0.1050228310502283
aF0.125
asVThirdParty_Info_Period5_15
p115
(lp116
I-1
asVThirdParty_Info_Period5_14
p117
(lp118
I-1
aF937.0
aF18253.0
asVThirdParty_Info_Period5_17
p119
(lp120
I-1
asVThirdParty_Info_Period5_16
p121
(lp122
I-1
asVThirdParty_Info_Period5_11
p123
(lp124
I-1
asVThirdParty_Info_Period5_10
p125
(lp126
I-1
aL0L
aL2L
aL5L
asVThirdParty_Info_Period5_13
p127
(lp128
I-1
asVThirdParty_Info_Period5_12
p129
(lp130
I-1
asS'WeblogInfo_30_encoding'
p131
(lp132
F0.06382978723404255
aF0.08737864077669903
aF0.09771754636233952
aF0.12130177514792899
asVWeblogInfo_18
p133
(lp134
L33L
asVLogInfo1_120_avg_count
p135
(lp136
F2.5
aF11.375
aF22.16666666666667
asVWeblogInfo_11
p137
(lp138
L2L
aL8L
aL11L
aL14L
asVUserupdateInfo_60_MARRIAGESTATUSID
p139
(lp140
F38784.0
aF60486.0
asVWeblogInfo_12
p141
(lp142
L4L
aL10L
asVWeblogInfo_15
p143
(lp144
L7L
aL25L
asVWeblogInfo_14
p145
(lp146
L10L
aL18L
aL41L
asVWeblogInfo_17
p147
(lp148
F28.0
aF56.0
aF93.0
asVWeblogInfo_16
p149
(lp150
L35L
asVUserupdateInfo_30_MARRIAGESTATUSID
p151
(lp152
F35798.0
aF64393.0
asVLogInfo2_120_count
p153
(lp154
F100.0
asVUserupdateInfo_180_HASBUYCAR
p155
(lp156
F42179.0
asVUserupdateInfo_30_freq
p157
(lp158
F26.0
asVUserupdateInfo_150_unique
p159
(lp160
F18.0
asVUserupdateInfo_120_avg_count
p161
(lp162
F1.5625
aF2.4705882352941178
asVUserupdateInfo_60_avg_count
p163
(lp164
F1.6666666666666667
asS'Education_Info6_encoding'
p165
(lp166
F0.0
aF0.012539184952978056
aF0.018867924528301886
aF0.01916376306620209
asVLogInfo1_30_unique
p167
(lp168
F3.0
asVUserupdateInfo_150_avg_count
p169
(lp170
F1.5625
aF2.5384615384615383
asS'WeblogInfo_45_encoding'
p171
(lp172
F0.07319800738757667
aF0.125
aF0.1875
aF0.2
asS'WeblogInfo_29_encoding'
p173
(lp174
F0.0
aF0.04743083003952569
aF0.0730960976448341
aF0.09348914858096828
asVUserupdateInfo_90_avg_count
p175
(lp176
F1.8666666666666667
asVUserupdateInfo_90_unique
p177
(lp178
F46777.0
asVLogInfo2_150_avg_count
p179
(lp180
F7.777777777777778
aF14.25
aF22.125
asS'WeblogInfo_13_encoding'
p181
(lp182
F0.0
aF0.07325530992631123
asS'UserInfo_7_encoding'
p183
(lp184
F0.032915360501567396
aF0.052367941712204005
aF0.09036144578313253
aF0.10810810810810811
asVUserupdateInfo_60_PHONE
p185
(lp186
F38784.0
aF60486.0
asVLogInfo1_60_avg_count
p187
(lp188
F2.2222222222222223
aF8.6
aF14.875
asVUserupdateInfo_90_freq
p189
(lp190
F25.0
aF74.0
asVThirdParty_Info_Period7_9
p191
(lp192
I-1
aL5L
aL8L
aL15L
asVThirdParty_Info_Period1_11
p193
(lp194
I-1
asVThirdParty_Info_Period1_10
p195
(lp196
I-1
aL0L
aL3L
aL5L
asVThirdParty_Info_Period1_13
p197
(lp198
I-1
asVThirdParty_Info_Period1_12
p199
(lp200
I-1
asVThirdParty_Info_Period1_15
p201
(lp202
I-1
asVThirdParty_Info_Period1_14
p203
(lp204
I-1
asVThirdParty_Info_Period1_17
p205
(lp206
I-1
asVThirdParty_Info_Period2_17
p207
(lp208
I-1
asVLogInfo1_60_count
p209
(lp210
F52.0
aF131.0
asVUserupdateInfo_90_IDNUMBER
p211
(lp212
F47094.0
aF66019.0
asVLogInfo2_60_count
p213
(lp214
F72.0
asVUserupdateInfo_60_IDNUMBER
p215
(lp216
F38784.0
aF60486.0
asVUserupdateInfo_7_IDNUMBER
p217
(lp218
F48238.0
asVUserupdateInfo_120_HASBUYCAR
p219
(lp220
F36775.0
aF68024.0
asVUserupdateInfo_120_freq
p221
(lp222
F12.0
aF24.0
aF74.0
asS'UserInfo_15_encoding'
p223
(lp224
F0.037030537030537033
aF0.06632964351085156
aF0.09584278155706727
aF0.09661016949152543
asVUserupdateInfo_120_IDNUMBER
p225
(lp226
F36775.0
aF68024.0
asVLogInfo1_30_avg_count
p227
(lp228
F8.428571428571429
asVLogInfo1_7_unique
p229
(lp230
F4.0
aF6.0
asVUserupdateInfo_30_unique
p231
(lp232
F32564.0
asVThirdParty_Info_Period7_13
p233
(lp234
I-1
aF13021.0
aF23930.0
asVThirdParty_Info_Period7_12
p235
(lp236
I-1
aL1L
aL7L
asVThirdParty_Info_Period7_11
p237
(lp238
I-1
asVThirdParty_Info_Period7_10
p239
(lp240
I-1
aL3L
aL4L
aL5L
asVThirdParty_Info_Period7_17
p241
(lp242
I-1
asVThirdParty_Info_Period7_16
p243
(lp244
I-1
aF12348.0
asVThirdParty_Info_Period7_15
p245
(lp246
I-1
asVThirdParty_Info_Period7_14
p247
(lp248
I-1
aF2339.0
asVLogInfo1_90_count
p249
(lp250
F60.0
asVLogInfo2_120_avg_count
p251
(lp252
F3.2
aF8.5
aF12.142857142857142
aF18.25
asS'UserInfo_16_encoding'
p253
(lp254
F0.0163265306122449
aF0.02258469259723965
aF0.06119847003824904
aF0.08349051370242982
asVLogInfo1_180_unique
p255
(lp256
F3.0
aF9.0
asVLogInfo2_180_unique
p257
(lp258
F4.0
asVUserupdateInfo_150_HASBUYCAR
p259
(lp260
F41883.0
asVUserupdateInfo_180_avg_count
p261
(lp262
F1.5625
aF2.0714285714285716
asVUserupdateInfo_30_IDNUMBER
p263
(lp264
F35798.0
aF64393.0
asVUserupdateInfo_180_PHONE
p265
(lp266
F42179.0
asVLogInfo2_30_count
p267
(lp268
F52.0
asVSocialNetwork_3
p269
(lp270
I-1
asVWeblogInfo_36
p271
(lp272
F5.0
asS'WeblogInfo_57_encoding'
p273
(lp274
F0.0
aF0.07294761004590872
aF0.09570957095709572
aF0.1
asVWeblogInfo_33
p275
(lp276
F2.0
aF19.0
asVThirdParty_Info_Period6_15
p277
(lp278
I-1
asVSocialNetwork_5
p279
(lp280
I-1
asVSocialNetwork_4
p281
(lp282
I-1
asVLogInfo1_60_unique
p283
(lp284
F3.0
asVSocialNetwork_9
p285
(lp286
I-1
asVSocialNetwork_8
p287
(lp288
I-1
asS'WeblogInfo_48_encoding'
p289
(lp290
F0.0
aF0.07278179092272045
aF0.13805970149253732
aF0.18181818181818182
asS'Education_Info2_encoding'
p291
(lp292
F0.018808777429467086
aF0.019417475728155338
aF0.02666666666666667
aF0.031161473087818695
asVUserupdateInfo_60_freq
p293
(lp294
F35.0
asVLogInfo2_60_unique
p295
(lp296
F4.0
asVUserupdateInfo_180_freq
p297
(lp298
F25.0
aF51.0
asS'UserInfo_24_encoding'
p299
(lp300
F0.0
aF0.3333333333333333
aF0.5
aF0.6666666666666666
asVLogInfo2_150_count
p301
(lp302
F72.0
asS'WeblogInfo_31_encoding'
p303
(lp304
F0.0
aF0.04743083003952569
aF0.0625
aF0.07341797730104739
asS'Education_Info4_encoding'
p305
(lp306
F0.019271948608137045
aF0.027777777777777776
aF0.04081632653061224
aF0.04304635761589404
asS'WeblogInfo_19_encoding'
p307
(lp308
F0.05555555555555555
aF0.06479919001012488
aF0.07758620689655173
aF0.08872562870867477
asVLogInfo1_150_count
p309
(lp310
F100.0
asS'UserInfo_14_encoding'
p311
(lp312
F0.02909090909090909
aF0.03717859624739402
aF0.09550392275196137
aF0.09747734508939505
asVLogInfo1_7_count
p313
(lp314
F61.0
asS'UserInfo_19_encoding'
p315
(lp316
F0.049926578560939794
aF0.054003724394785846
aF0.08024316109422493
aF0.09362549800796813
asVLogInfo2_90_count
p317
(lp318
F66.0
aF99.0
asS'UserInfo_23_encoding'
p319
(lp320
F0.0
aF0.011976047904191617
aF0.020689655172413793
aF0.125
asVWeblogInfo_5
p321
(lp322
F6.0
aF25.0
asVWeblogInfo_4
p323
(lp324
F9.0
asVWeblogInfo_7
p325
(lp326
F23.0
aF42.0
aF68.0
aF113.0
asVWeblogInfo_6
p327
(lp328
F5.0
aF12.0
asVWeblogInfo_9
p329
(lp330
L18L
aL25L
aL34L
asVWeblogInfo_8
p331
(lp332
L10L
asS'WeblogInfo_53_encoding'
p333
(lp334
F0.0
aF0.07330965623534141
asVUserupdateInfo_120_PHONE
p335
(lp336
F36775.0
aF68024.0
asVUserupdateInfo_90_HASBUYCAR
p337
(lp338
F47094.0
aF66019.0
asVThirdParty_Info_Period6_8
p339
(lp340
I-1
asVThirdParty_Info_Period6_9
p341
(lp342
I-1
aL10L
asVWeblogInfo_24
p343
(lp344
F2.0
aF10.0
aF19.0
asVLogInfo2_60_avg_count
p345
(lp346
F7.444444444444445
aF19.8
asVUserupdateInfo_30_avg_count
p347
(lp348
F1.5625
asVWeblogInfo_27
p349
(lp350
F5.0
asVThirdParty_Info_Period6_2
p351
(lp352
I-1
asVThirdParty_Info_Period6_3
p353
(lp354
I-1
asVLogInfo2_30_unique
p355
(lp356
F4.0
asVThirdParty_Info_Period6_1
p357
(lp358
I-1
aF96.0
asVThirdParty_Info_Period6_6
p359
(lp360
I-1
asVThirdParty_Info_Period6_7
p361
(lp362
I-1
asVThirdParty_Info_Period6_4
p363
(lp364
I-1
asVThirdParty_Info_Period6_5
p365
(lp366
I-1
aF41.0
aF141.0
aF310.0
asVLogInfo2_180_avg_count
p367
(lp368
F4.714285714285714
aF11.125
aF14.125
aF24.83333333333333
asVThirdParty_Info_Period4_8
p369
(lp370
I-1
asVThirdParty_Info_Period4_9
p371
(lp372
I-1
aL0L
aL9L
aL29L
asVThirdParty_Info_Period4_4
p373
(lp374
I-1
asVThirdParty_Info_Period4_5
p375
(lp376
I-1
aF152.0
asVThirdParty_Info_Period4_6
p377
(lp378
I-1
asVThirdParty_Info_Period4_7
p379
(lp380
I-1
asVThirdParty_Info_Period4_1
p381
(lp382
I-1
aF2.0
aF101.0
asVThirdParty_Info_Period4_2
p383
(lp384
I-1
asVThirdParty_Info_Period4_3
p385
(lp386
I-1
asVLogInfo1_120_unique
p387
(lp388
F3.0
aF9.0
asVLogInfo1_30_count
p389
(lp390
F100.0
asVUserupdateInfo_7_avg_count
p391
(lp392
F1.2352941176470589
aF2.1111111111111107
aF5.666666666666668
asVThirdParty_Info_Period6_14
p393
(lp394
I-1
aF16022.0
asVLogInfo2_150_unique
p395
(lp396
F9.0
asVUserupdateInfo_30_PHONE
p397
(lp398
F35798.0
aF64393.0
asVThirdParty_Info_Period3_6
p399
(lp400
I-1
asS'WeblogInfo_2_encoding'
p401
(lp402
F0.06768250896924255
aF0.07840772014475271
aF0.09826589595375723
aF0.11031604054859868
asVThirdParty_Info_Period6_16
p403
(lp404
I-1
aF8970.0
aF33550.0
asVSocialNetwork_6
p405
(lp406
I-1
aL102L
asVThirdParty_Info_Period7_8
p407
(lp408
I-1
asVThirdParty_Info_Period6_17
p409
(lp410
I-1
asVUserupdateInfo_90_PHONE
p411
(lp412
F47094.0
aF66019.0
asVUserInfo_18
p413
(lp414
L21L
asVThirdParty_Info_Period6_10
p415
(lp416
I-1
aL0L
aL1L
aL4L
asVUserupdateInfo_150_MARRIAGESTATUSID
p417
(lp418
F41883.0
asVUserupdateInfo_180_MARRIAGESTATUSID
p419
(lp420
F42179.0
asVThirdParty_Info_Period6_11
p421
(lp422
I-1
asS'UserInfo_1_encoding'
p423
(lp424
F0.018867924528301886
aF0.058024568061520024
aF0.08204081632653061
aF0.08262393590385578
asVLogInfo1_90_unique
p425
(lp426
F3.0
asVThirdParty_Info_Period6_12
p427
(lp428
I-1
asS'WeblogInfo_28_encoding'
p429
(lp430
F0.0
aF0.037037037037037035
aF0.04743083003952569
aF0.07321471098560882
asVLogInfo1_180_count
p431
(lp432
F73.0
asVUserupdateInfo_60_unique
p433
(lp434
F15393.0
aF55346.0
asVLogInfo1_90_avg_count
p435
(lp436
F2.4444444444444446
aF6.166666666666668
aF8.571428571428571
aF18.4
asVUserupdateInfo_150_IDNUMBER
p437
(lp438
F41883.0
asVUserupdateInfo_7_HASBUYCAR
p439
(lp440
F48238.0
asS'WeblogInfo_20_encoding'
p441
(lp442
F0.049586776859504134
aF0.05555555555555555
aF0.06024844720496894
aF0.10100413467217956
asS'WeblogInfo_54_encoding'
p443
(lp444
F0.0
aF0.0733087742799732
asVLogInfo1_180_avg_count
p445
(lp446
F2.1666666666666665
aF4.75
aF9.692307692307693
aF21.7
asVThirdParty_Info_Period5_5
p447
(lp448
I-1
aF13.0
aF114.0
aF263.0
asVThirdParty_Info_Period5_4
p449
(lp450
I-1
asVThirdParty_Info_Period5_7
p451
(lp452
I-1
asVThirdParty_Info_Period5_6
p453
(lp454
I-1
asVThirdParty_Info_Period5_1
p455
(lp456
I-1
aF93.0
asVThirdParty_Info_Period5_3
p457
(lp458
I-1
asVThirdParty_Info_Period5_2
p459
(lp460
I-1
aF1.0
asVUserupdateInfo_30_HASBUYCAR
p461
(lp462
F35798.0
aF64393.0
asVUserupdateInfo_120_unique
p463
(lp464
F19.0
aF55795.0
asVThirdParty_Info_Period5_9
p465
(lp466
I-1
aL0L
aL8L
aL38L
asVThirdParty_Info_Period5_8
p467
(lp468
I-1
asS'UserInfo_3_encoding'
p469
(lp470
F0.04477611940298507
aF0.050983899821109124
aF0.05931356214595135
aF0.07737397420867527
asVThirdParty_Info_Period2_6
p471
(lp472
I-1
asVThirdParty_Info_Period2_7
p473
(lp474
I-1
asVThirdParty_Info_Period2_4
p475
(lp476
I-1
asVThirdParty_Info_Period2_5
p477
(lp478
I-1
asVWeblogInfo_42
p479
(lp480
F2.0
aF5.0
asVThirdParty_Info_Period2_3
p481
(lp482
I-1
asVThirdParty_Info_Period2_1
p483
(lp484
I-1
asVThirdParty_Info_Period2_8
p485
(lp486
I-1
asVThirdParty_Info_Period2_9
p487
(lp488
I-1
aF5.0
aF16.0
aF55.0
asVThirdParty_Info_Period2_10
p489
(lp490
I-1
aL0L
aL4L
aL7L
asVUserupdateInfo_7_MARRIAGESTATUSID
p491
(lp492
F48238.0
asVThirdParty_Info_Period2_11
p493
(lp494
I-1
asVLogInfo2_7_unique
p495
(lp496
F5.0
asVThirdParty_Info_Period2_12
p497
(lp498
I-1
asVLogInfo1_7_avg_count
p499
(lp500
F3.4444444444444446
aF7.555555555555554
aF18.75
asVUserupdateInfo_120_MARRIAGESTATUSID
p501
(lp502
F36775.0
aF68024.0
asVLogInfo2_30_avg_count
p503
(lp504
F5.875
aF8.714285714285714
aF16.0
aF21.83333333333333
asVThirdParty_Info_Period2_13
p505
(lp506
I-1
asVThirdParty_Info_Period2_14
p507
(lp508
I-1
asVLogInfo2_180_count
p509
(lp510
F73.0
asVUserupdateInfo_180_unique
p511
(lp512
F14.0
asS'Education_Info8_encoding'
p513
(lp514
F0.0
aF0.008547008547008548
aF0.0174496644295302
aF0.03278688524590164
asVThirdParty_Info_Period2_15
p515
(lp516
I-1
asVThirdParty_Info_Period2_16
p517
(lp518
I-1
asVUserupdateInfo_180_IDNUMBER
p519
(lp520
F42179.0
asS'WeblogInfo_37_encoding'
p521
(lp522
F0.0
aF0.04743083003952569
aF0.047619047619047616
aF0.07333469138317376
asVThirdParty_Info_Period1_16
p523
(lp524
I-1
asVUserupdateInfo_60_HASBUYCAR
p525
(lp526
F38784.0
aF60486.0
asVUserupdateInfo_150_freq
p527
(lp528
F24.0
aF74.0
asVLogInfo2_120_unique
p529
(lp530
F4.0
asS'WeblogInfo_39_encoding'
p531
(lp532
F0.04743083003952569
aF0.08823529411764706
aF0.09331476323119778
aF0.13333333333333333
asVUserupdateInfo_90_MARRIAGESTATUSID
p533
(lp534
F47094.0
aF66019.0
asS'UserInfo_22_encoding'
p535
(lp536
F0.058823529411764705
aF0.05982905982905983
aF0.060810810810810814
aF0.06390977443609022
asVLogInfo2_7_count
p537
(lp538
F60.0
aF93.0
as.