(dp0
VUserupdateInfo_7_PHONE
p1
(dp2
S'Bin 0'
p3
F-0.07293812595697678
sS'Bin 1'
p4
F0.23859368383080598
ssVThirdParty_Info_Period1_5
p5
(dp6
S'Bin 4'
p7
F0.5227106901180909
sS'Bin 2'
p8
F0.01564818836124663
sS'Bin -1'
p9
F-0.2928689899983283
sS'Bin 1'
p10
F-0.007151211605269991
ssS'UserInfo_9_encoding'
p11
(dp12
S'Bin 4'
p13
F-0.0918543268657464
sS'Bin 2'
p14
F-0.024975314743110637
sS'Bin 3'
p15
F-0.07656900618202883
sg3
F0.16190635283734728
sS'Bin 1'
p16
F0.02614073534027902
ssVThirdParty_Info_Period3_14
p17
(dp18
S'Bin 3'
p19
F0.029399169148242858
sS'Bin -1'
p20
F-0.58149758405414
sS'Bin 1'
p21
F-0.0034265140203203048
ssVThirdParty_Info_Period3_10
p22
(dp23
S'Bin 3'
p24
F0.5762681447114334
sS'Bin 5'
p25
F2.00040133172117
sS'Bin 2'
p26
F0.13800613409868456
sS'Bin -1'
p27
F-0.58149758405414
sS'Bin 1'
p28
F-0.09640538350501267
ssVSocialNetwork_13
p29
(dp30
S'1'
p31
F0.17065428666128074
sS'0'
p32
F-0.04444242820610944
sS'2'
p33
F0.5534823487848444
ssVSocialNetwork_12
p34
(dp35
S'1'
p36
F1.0459588338826387
sS'0'
p37
F-0.04889242040845433
sS'-1'
p38
F0.014541928583815839
ssVSocialNetwork_10
p39
(dp40
S'Bin 2'
p41
F-0.03536871217306117
sS'Bin -1'
p42
F0.011923315314601775
ssVLogInfo1_150_avg_count
p43
(dp44
S'Bin 2'
p45
F-0.35143904172976237
sS'Bin 3'
p46
F-0.5723567525834792
sg3
F0.15736080508694614
sS'Bin 1'
p47
F-0.031990961395602396
ssVUserupdateInfo_7_unique
p48
(dp49
g3
F-0.06697490371276182
sS'Bin 1'
p50
F0.21105942755331372
ssVThirdParty_Info_Period3_9
p51
(dp52
S'Bin 3'
p53
F0.49921035634563365
sS'Bin 5'
p54
F1.2691023851968484
sS'Bin 2'
p55
F0.2605753007305859
sS'Bin -1'
p56
F-0.58149758405414
sS'Bin 1'
p57
F-0.022169243302276726
ssVThirdParty_Info_Period6_14
p58
(dp59
S'Bin 3'
p60
F0.19955712781755025
sS'Bin -1'
p61
F-0.37094881637884414
sS'Bin 1'
p62
F0.1641077655466527
ssVThirdParty_Info_Period6_15
p63
(dp64
S'Bin 2'
p65
F0.18007420308878644
sS'Bin -1'
p66
F-0.37094881637884414
ssVThirdParty_Info_Period6_16
p67
(dp68
S'Bin 4'
p69
F0.22234039234240066
sS'Bin 2'
p70
F0.20263751575194341
sS'Bin -1'
p71
F-0.37094881637884414
sS'Bin 1'
p72
F0.08892371488593964
ssVThirdParty_Info_Period6_17
p73
(dp74
S'Bin 2'
p75
F0.18007420308878644
sS'Bin -1'
p76
F-0.37094881637884414
ssVThirdParty_Info_Period6_10
p77
(dp78
S'Bin 3'
p79
F0.49905171580144403
sS'Bin 5'
p80
F0.9194573471863742
sS'Bin 2'
p81
F0.409092489221283
sS'Bin -1'
p82
F-0.37094881637884414
sS'Bin 1'
p83
F0.05074731049010253
ssVThirdParty_Info_Period6_11
p84
(dp85
S'Bin 2'
p86
F0.18007420308878644
sS'Bin -1'
p87
F-0.37094881637884414
ssVThirdParty_Info_Period6_12
p88
(dp89
S'Bin 2'
p90
F0.18007420308878644
sS'Bin -1'
p91
F-0.37094881637884414
ssVThirdParty_Info_Period6_13
p92
(dp93
S'Bin 2'
p94
F0.18007420308878644
sS'Bin -1'
p95
F-0.37094881637884414
ssVThirdParty_Info_Period4_14
p96
(dp97
S'Bin 3'
p98
F0.07571840306119747
sS'Bin -1'
p99
F-0.5982779830965713
sS'Bin 1'
p100
F-0.08271238206869766
ssVThirdParty_Info_Period4_10
p101
(dp102
S'Bin 3'
p103
F0.4359983114861976
sS'Bin 5'
p104
F1.0518935694024532
sS'Bin 2'
p105
F0.20528969167657565
sS'Bin -1'
p106
F-0.5982779830965713
sS'Bin 1'
p107
F-0.08482273771886267
ssVLogInfo1_150_unique
p108
(dp109
S'Bin 2'
p110
F-0.47069734510049543
sg3
F0.2360047036393653
sS'Bin 1'
p111
F-0.02400952116837671
ssS'WeblogInfo_2_encoding'
p112
(dp113
S'Bin 4'
p114
F-1.844412924013526
sS'Bin 2'
p115
F-0.3209174413801503
sS'Bin 3'
p116
F-0.4500431488880899
sg3
F0.08537199357447268
sS'Bin 1'
p117
F-0.07337958530258791
ssVThirdParty_Info_Period5_14
p118
(dp119
S'Bin 4'
p120
F0.1299407779348367
sS'Bin 2'
p121
F0.09980386921657444
sS'Bin -1'
p122
F-0.5673991149315353
sS'Bin 1'
p123
F-0.35157949671636485
ssVLogInfo2_90_unique
p124
(dp125
g3
F0.10518047045808354
sS'Bin 1'
p126
F-0.01572069491296427
ssVThirdParty_Info_Period5_10
p127
(dp128
S'Bin 3'
p129
F0.47158185589043755
sS'Bin 5'
p130
F0.7720700835631937
sS'Bin 2'
p131
F0.3010962526183862
sS'Bin -1'
p132
F-0.5673991149315353
sS'Bin 1'
p133
F-0.04700600129239596
ssS'WeblogInfo_30_encoding'
p134
(dp135
S'Bin 4'
p136
F-1.0559555636492557
sS'Bin 2'
p137
F-0.31471362923997553
sS'Bin 3'
p138
F-0.5574000324750795
sg3
F0.41735017446026457
sS'Bin 1'
p139
F0.04563703849277908
ssS'UserInfo_7_encoding'
p140
(dp141
S'Bin 4'
p142
F-0.44938488292488077
sS'Bin 2'
p143
F-0.004002631320363693
sS'Bin 3'
p144
F-0.3095492929045723
sg3
F0.9752283424971464
sS'Bin 1'
p145
F0.38619866935543046
ssVLogInfo1_60_unique
p146
(dp147
g3
F0.18853149554225254
sS'Bin 1'
p148
F-0.028229363900818732
ssVLogInfo1_30_unique
p149
(dp150
g3
F0.12496165261614094
sS'Bin 1'
p151
F-0.025708450277050078
ssVLogInfo1_60_avg_count
p152
(dp153
S'Bin 2'
p154
F-0.3634770557989463
sS'Bin 3'
p155
F-0.44706872670705045
sg3
F0.11736446081312675
sS'Bin 1'
p156
F0.000246875608885826
ssS'SocialNetwork_17_mergeByBadRate'
p157
(dp158
S'Bin 2'
p159
F-0.04227273873091001
sS'Bin 0'
p160
F0.014589995107894422
sS'Bin 1'
p161
F-0.011831460265215896
ssVThirdParty_Info_Period2_10
p162
(dp163
S'Bin 3'
p164
F0.5893911073337308
sS'Bin 5'
p165
F1.3336409063344195
sS'Bin 2'
p166
F0.10176843600037236
sS'Bin -1'
p167
F-0.34033552723725197
sS'Bin 1'
p168
F-0.10275580024305338
ssVThirdParty_Info_Period1_10
p169
(dp170
S'Bin 3'
p171
F0.5322801411342416
sS'Bin 5'
p172
F1.0205053498924423
sS'Bin 2'
p173
F0.07657533906603481
sS'Bin -1'
p174
F-0.2928689899983283
sS'Bin 1'
p175
F-0.10714753979195892
ssVUserupdateInfo_7_IDNUMBER
p176
(dp177
g3
F-0.07288933713936407
sS'Bin 1'
p178
F0.23845680066037814
ssS'UserInfo_15_encoding'
p179
(dp180
S'Bin 4'
p181
F-0.34764817408353843
sS'Bin 2'
p182
F-0.2932660019661402
sS'Bin 3'
p183
F-0.3020899482421768
sg3
F0.7207186990094376
sS'Bin 1'
p184
F0.11748874310534949
ssVLogInfo1_7_unique
p185
(dp186
S'Bin 2'
p187
F0.1679227010234929
sg3
F-0.013479621637615489
sS'Bin 1'
p188
F0.0494517681516829
ssVUserupdateInfo_120_freq
p189
(dp190
S'Bin 2'
p191
F-0.4915664969611753
sS'Bin 3'
p192
F-2.5375601045734713
sg3
F0.02509279536463445
sS'Bin 1'
p193
F-0.018337514247732476
ssS'UserInfo_16_encoding'
p194
(dp195
S'Bin 4'
p196
F-0.15652508364267542
sS'Bin 2'
p197
F0.19292179927064532
sS'Bin 3'
p198
F-0.14172070382585605
sg3
F1.563704900493203
sS'Bin 1'
p199
F1.2300791834011122
ssVLogInfo1_180_unique
p200
(dp201
S'Bin 2'
p202
F-0.5287361301075887
sg3
F0.20481483906981343
sS'Bin 1'
p203
F-0.0194278071571506
ssVLogInfo2_180_unique
p204
(dp205
g3
F0.11797206224529234
sS'Bin 1'
p206
F-0.013668749670490386
ssVSocialNetwork_9
p207
(dp208
S'Bin 2'
p209
F-0.033415031932390364
sS'Bin -1'
p210
F0.011225848504505895
ssVSocialNetwork_8
p211
(dp212
S'Bin 2'
p213
F-0.03472498044952496
sS'Bin -1'
p214
F0.011655822473818142
ssVUserInfo_6
p215
(dp216
S'1'
p217
F-0.03324062899943285
sS'3'
p218
F-0.36656024724846215
sS'2'
p219
F0.07298738250632575
ssVUserInfo_5
p220
(dp221
S'1'
p222
F-0.03564210895893434
sS'3'
p223
F-0.3744297385802278
sS'2'
p224
F0.07693435620767951
ssS'UserInfo_14_encoding'
p225
(dp226
S'Bin 4'
p227
F-0.3312196938292424
sS'Bin 2'
p228
F-0.058460637268008875
sS'Bin 3'
p229
F-0.3119863052344722
sg3
F0.9702470121469422
sS'Bin 1'
p230
F0.7165746058276011
ssVWeblogInfo_7
p231
(dp232
S'Bin 4'
p233
F-0.6060386929702575
sS'Bin 2'
p234
F-0.30707830548076964
sS'Bin 3'
p235
F-0.4343644768855281
sg3
F0.03643872115794613
sS'Bin 1'
p236
F-0.20437989100122303
ssVWeblogInfo_6
p237
(dp238
S'Bin 2'
p239
F-0.7217476718836299
sg3
F0.09604324937931263
sS'Bin 1'
p240
F-0.5374198014572977
ssS'UserInfo_19_encoding'
p241
(dp242
S'Bin 4'
p243
F-0.4383159355974558
sS'Bin 2'
p244
F0.04110151475204744
sS'Bin 3'
p245
F-0.18051800273843796
sg3
F0.47470147093173015
sS'Bin 1'
p246
F0.3518852984625627
ssVWeblogInfo_21
p247
(dp248
S'A'
p249
F-0.20198669729091612
sS'C'
p250
F0.029523725416698073
sS'B'
p251
F-0.7458006353454164
sS'NAN'
p252
F0.14917612364332475
sS'D'
p253
F0.017988362318752768
ssVThirdParty_Info_Period6_8
p254
(dp255
S'Bin 2'
p256
F0.18007420308878644
sS'Bin -1'
p257
F-0.37094881637884414
ssVThirdParty_Info_Period6_9
p258
(dp259
S'Bin 3'
p260
F0.7963850500795167
sS'Bin -1'
p261
F-0.37094881637884414
sS'Bin 1'
p262
F0.15287554982775656
ssVThirdParty_Info_Period6_2
p263
(dp264
S'Bin 2'
p265
F0.18007420308878644
sS'Bin -1'
p266
F-0.37094881637884414
ssVThirdParty_Info_Period6_3
p267
(dp268
S'Bin 2'
p269
F0.18007420308878644
sS'Bin -1'
p270
F-0.37094881637884414
ssVLogInfo2_30_unique
p271
(dp272
g3
F0.07103450262476749
sS'Bin 1'
p273
F-0.01749106567190998
ssVThirdParty_Info_Period6_1
p274
(dp275
S'Bin 3'
p276
F0.2963214653679507
sS'Bin -1'
p277
F-0.37094881637884414
sS'Bin 1'
p278
F0.17139274346925748
ssVThirdParty_Info_Period6_6
p279
(dp280
S'Bin 2'
p281
F0.18007420308878644
sS'Bin -1'
p282
F-0.37094881637884414
ssVThirdParty_Info_Period6_7
p283
(dp284
S'Bin 2'
p285
F0.18007420308878644
sS'Bin -1'
p286
F-0.37094881637884414
ssVThirdParty_Info_Period6_4
p287
(dp288
S'Bin 2'
p289
F0.18007420308878644
sS'Bin -1'
p290
F-0.37094881637884414
ssVThirdParty_Info_Period6_5
p291
(dp292
S'Bin 3'
p293
F0.32232148656490595
sS'Bin 5'
p294
F0.3772031064468525
sS'Bin 2'
p295
F0.2108741842365262
sS'Bin -1'
p296
F-0.37094881637884414
sS'Bin 1'
p297
F0.04059208520022998
ssVLogInfo2_180_avg_count
p298
(dp299
S'Bin 4'
p300
F-0.66575792767188
sS'Bin 2'
p301
F-0.4334259503032638
sS'Bin 3'
p302
F-0.49819678646104587
sg3
F0.06207276733003546
sS'Bin 1'
p303
F-0.2105263311771156
ssVThirdParty_Info_Period4_9
p304
(dp305
S'Bin 3'
p306
F0.36192748673070296
sS'Bin 5'
p307
F0.7205364334480107
sS'Bin 2'
p308
F0.2556894684925683
sS'Bin -1'
p309
F-0.5982779830965713
sS'Bin 1'
p310
F-0.08482273771886267
ssVLogInfo2_90_avg_count
p311
(dp312
S'Bin 4'
p313
F-0.6894476987942846
sS'Bin 2'
p314
F-0.19179143532010362
sS'Bin 3'
p315
F-0.43168530582547976
sg3
F0.06758177733620165
sS'Bin 1'
p316
F-0.06591767506819425
ssVThirdParty_Info_Period4_5
p317
(dp318
S'Bin 3'
p319
F0.30499619128173366
sS'Bin -1'
p320
F-0.5982779830965713
sS'Bin 1'
p321
F0.0058875992103708695
ssVThirdParty_Info_Period4_1
p322
(dp323
S'Bin 4'
p324
F0.19828450998912542
sS'Bin 2'
p325
F0.18151939229691463
sS'Bin -1'
p326
F-0.5982779830965713
sS'Bin 1'
p327
F-0.21663461420817537
ssVLogInfo1_120_unique
p328
(dp329
S'Bin 2'
p330
F-0.47069734510049543
sg3
F0.1957605100249989
sS'Bin 1'
p331
F-0.021406747647178318
ssVLogInfo1_120_avg_count
p332
(dp333
S'Bin 2'
p334
F-0.34914615691940687
sS'Bin 3'
p335
F-0.6188009445841088
sg3
F0.13672628273808055
sS'Bin 1'
p336
F-0.06105271365021618
ssVThirdParty_Info_Period3_5
p337
(dp338
S'Bin 3'
p339
F0.1844723474354889
sS'Bin -1'
p340
F-0.58149758405414
sS'Bin 1'
p341
F-0.008545724969948383
ssVUserInfo_10
p342
(dp343
S'1'
p344
F0.1676351478453177
sS'0'
p345
F-0.027989170405749924
sS'2'
p346
F-0.0473381487221255
ssVUserInfo_17
p347
(dp348
S'1'
p349
F-0.07178393638404713
sS'2'
p350
F0.6553608735133517
ssS'UserInfo_1_encoding'
p351
(dp352
S'Bin 4'
p353
F-0.13389469012580638
sS'Bin 2'
p354
F-0.08217934550962676
sS'Bin 3'
p355
F-0.13034203323997626
sg3
F1.4788229161789175
sS'Bin 1'
p356
F0.2495525807918244
ssVLogInfo1_90_unique
p357
(dp358
g3
F0.15974338676537994
sS'Bin 1'
p359
F-0.02115577598997226
ssVLogInfo1_90_avg_count
p360
(dp361
S'Bin 4'
p362
F-0.6227405425881891
sS'Bin 2'
p363
F-0.2172754344800245
sS'Bin 3'
p364
F-0.357142645553633
sg3
F0.13922104429151422
sS'Bin 1'
p365
F0.0030277547302596966
ssVUserupdateInfo_7_HASBUYCAR
p366
(dp367
g3
F-0.07284055070198409
sS'Bin 1'
p368
F0.2383198987503826
ssS'WeblogInfo_20_encoding'
p369
(dp370
S'Bin 4'
p371
F-0.49163212021808117
sS'Bin 2'
p372
F0.20957863071150187
sS'Bin 3'
p373
F-0.08145633205409268
sg3
F0.9772965955612054
sS'Bin 1'
p374
F0.3717183610044985
ssVLogInfo1_180_avg_count
p375
(dp376
S'Bin 4'
p377
F-0.591649955518158
sS'Bin 2'
p378
F-0.1569586470511217
sS'Bin 3'
p379
F-0.2914049037656717
sg3
F0.08228854682359459
sS'Bin 1'
p380
F0.05439625046320027
ssVThirdParty_Info_Period5_5
p381
(dp382
S'Bin 3'
p383
F0.1896240511152829
sS'Bin 5'
p384
F0.31590709638724246
sS'Bin 2'
p385
F0.07732876907726083
sS'Bin -1'
p386
F-0.5673991149315353
sS'Bin 1'
p387
F-0.5505795446508299
ssVThirdParty_Info_Period5_1
p388
(dp389
S'Bin 3'
p390
F0.21891105264524133
sS'Bin -1'
p391
F-0.5673991149315353
sS'Bin 1'
p392
F0.0688393599508428
ssVThirdParty_Info_Period5_2
p393
(dp394
S'Bin 3'
p395
F0.25424372928160427
sS'Bin -1'
p396
F-0.5673991149315353
sS'Bin 1'
p397
F-0.1687181199113489
ssVThirdParty_Info_Period5_9
p398
(dp399
S'Bin 3'
p400
F0.40906945597278793
sS'Bin 5'
p401
F1.0249054246848062
sS'Bin 2'
p402
F0.3328109866160238
sS'Bin -1'
p403
F-0.5673991149315353
sS'Bin 1'
p404
F-0.04700600129239596
ssVLogInfo2_7_avg_count
p405
(dp406
S'Bin 4'
p407
F-0.4147996881747931
sS'Bin 2'
p408
F-0.18978521133517137
sS'Bin 3'
p409
F-0.3609018048187289
sg3
F0.10880635548493238
sS'Bin 1'
p410
F-0.051458568754906495
ssVThirdParty_Info_Period2_9
p411
(dp412
S'Bin 3'
p413
F0.2750502920157961
sS'Bin 5'
p414
F0.30734927924593614
sS'Bin 2'
p415
F0.26852526905549845
sS'Bin -1'
p416
F-0.34033552723725197
sS'Bin 1'
p417
F-0.044469197994171664
ssVUserupdateInfo_7_MARRIAGESTATUSID
p418
(dp419
g3
F-0.07288933713936407
sS'Bin 1'
p420
F0.23845680066037814
ssVLogInfo2_7_unique
p421
(dp422
g3
F0.01013699489392538
sS'Bin 1'
p423
F-0.032263499082421716
ssVLogInfo1_7_avg_count
p424
(dp425
S'Bin 2'
p426
F-0.23735880293470193
sS'Bin 3'
p427
F-0.46159682726996015
sg3
F0.08804163436139267
sS'Bin 1'
p428
F-0.10113502459973056
ssS'WeblogInfo_19_encoding'
p429
(dp430
S'Bin 4'
p431
F-1.151265743453581
sS'Bin 2'
p432
F0.01549148745276451
sS'Bin 3'
p433
F-0.2082648612518517
sg3
F0.4028220738973547
sS'Bin 1'
p434
F0.13190806826172563
ssVLogInfo2_30_avg_count
p435
(dp436
S'Bin 4'
p437
F-0.8284923511905297
sS'Bin 2'
p438
F-0.26533787530954356
sS'Bin 3'
p439
F-0.4172965683733803
sg3
F0.041967782518300356
sS'Bin 1'
p440
F-0.22894924697575586
ssVLogInfo2_60_unique
p441
(dp442
g3
F0.10697669080641276
sS'Bin 1'
p443
F-0.018855007281917725
ssVLogInfo2_120_avg_count
p444
(dp445
S'Bin 4'
p446
F-0.6195069100211241
sS'Bin 2'
p447
F-0.308332796151078
sS'Bin 3'
p448
F-0.4552816815584357
sg3
F0.07074171778480992
sS'Bin 1'
p449
F-0.08065222952301876
ssS'UserInfo_3_encoding'
p450
(dp451
S'Bin 4'
p452
F-0.10711309453584439
sS'Bin 2'
p453
F0.2262117733879329
sS'Bin 3'
p454
F0.043363304388957795
sg3
F0.5833353119345256
sS'Bin 1'
p455
F0.38635576620596174
ssVLogInfo2_120_unique
p456
(dp457
g3
F0.1282202951825408
sS'Bin 1'
p458
F-0.01691073223464149
ss.