(dp0
VUserupdateInfo_7_PHONE
p1
F0.017377394022356447
sVThirdParty_Info_Period1_5
p2
F0.0030765025863050805
sS'UserInfo_9_encoding'
p3
F0.0029381587162055443
sVThirdParty_Info_Period3_14
p4
F0.008628729489468075
sVThirdParty_Info_Period3_10
p5
F0.04591677238460221
sVSocialNetwork_13
p6
F0.007996552052614021
sVSocialNetwork_12
p7
F0.002524429649092357
sVSocialNetwork_10
p8
F0.00042169748816565694
sVLogInfo1_150_avg_count
p9
F0.018070081207576003
sVUserupdateInfo_7_unique
p10
F0.01411906261625901
sVThirdParty_Info_Period3_9
p11
F0.02105107220878535
sVThirdParty_Info_Period6_14
p12
F0.06663799220245474
sVThirdParty_Info_Period6_15
p13
F0.06642916710790268
sVThirdParty_Info_Period6_16
p14
F0.06827356662815325
sVThirdParty_Info_Period6_17
p15
F0.06642916710790268
sVThirdParty_Info_Period6_10
p16
F0.09556974552535116
sVThirdParty_Info_Period6_11
p17
F0.06642916710790268
sVThirdParty_Info_Period6_12
p18
F0.06642916710790268
sVThirdParty_Info_Period6_13
p19
F0.06642916710790268
sVThirdParty_Info_Period4_14
p20
F0.0268316602859302
sVThirdParty_Info_Period4_10
p21
F0.06043339663377541
sVLogInfo1_150_unique
p22
F0.006808672081054644
sS'WeblogInfo_2_encoding'
p23
F0.03566794594089539
sVThirdParty_Info_Period5_14
p24
F0.057695865976809195
sVLogInfo2_90_unique
p25
F0.0016532823136131336
sVThirdParty_Info_Period5_10
p26
F0.07913999804238635
sS'WeblogInfo_30_encoding'
p27
F0.01988336676477078
sS'UserInfo_7_encoding'
p28
F0.06251482178993359
sVLogInfo1_60_unique
p29
F0.005319766041854808
sVLogInfo1_30_unique
p30
F0.0032117107993632843
sVLogInfo1_60_avg_count
p31
F0.013212077421977128
sS'SocialNetwork_17_mergeByBadRate'
p32
F0.0006159998543670834
sVThirdParty_Info_Period2_10
p33
F0.031430167067484874
sVThirdParty_Info_Period1_10
p34
F0.03767455350143539
sVUserupdateInfo_7_IDNUMBER
p35
F0.01735583845396113
sS'UserInfo_15_encoding'
p36
F0.12249082934539539
sVLogInfo1_7_unique
p37
F0.001220133968787199
sVUserupdateInfo_120_freq
p38
F0.0076007137197816295
sS'UserInfo_16_encoding'
p39
F0.0811106381469683
sVLogInfo1_180_unique
p40
F0.005429449085166287
sVLogInfo2_180_unique
p41
F0.0016123139732350082
sVSocialNetwork_9
p42
F0.00037510036102584806
sVSocialNetwork_8
p43
F0.00040473455644078236
sVUserInfo_6
p44
F0.012245291467379515
sVUserInfo_5
p45
F0.013126524078865404
sS'UserInfo_14_encoding'
p46
F0.10384224541223366
sVWeblogInfo_7
p47
F0.010313896598451984
sVWeblogInfo_6
p48
F0.05572475288250176
sS'UserInfo_19_encoding'
p49
F0.050540144128238415
sVWeblogInfo_21
p50
F0.009126373249944435
sVThirdParty_Info_Period6_8
p51
F0.06642916710790268
sVThirdParty_Info_Period6_9
p52
F0.07776469742820016
sVThirdParty_Info_Period6_2
p53
F0.06642916710790268
sVThirdParty_Info_Period6_3
p54
F0.06642916710790268
sVLogInfo2_30_unique
p55
F0.0012423405283750184
sVThirdParty_Info_Period6_1
p56
F0.06710766154019616
sVThirdParty_Info_Period6_6
p57
F0.06642916710790268
sVThirdParty_Info_Period6_7
p58
F0.06642916710790268
sVThirdParty_Info_Period6_4
p59
F0.06642916710790268
sVThirdParty_Info_Period6_5
p60
F0.07208240761170025
sVLogInfo2_180_avg_count
p61
F0.01802151424975864
sVThirdParty_Info_Period4_9
p62
F0.052677708542307834
sVLogInfo2_90_avg_count
p63
F0.01419080780300358
sVThirdParty_Info_Period4_5
p64
F0.030533771695917648
sVThirdParty_Info_Period4_1
p65
F0.057194921207393376
sVLogInfo1_120_unique
p66
F0.005275340067189866
sVLogInfo1_120_avg_count
p67
F0.014709908678054034
sVThirdParty_Info_Period3_5
p68
F0.012173037211378041
sVUserInfo_10
p69
F0.00500792165280946
sVUserInfo_17
p70
F0.046861842542771294
sS'UserInfo_1_encoding'
p71
F0.032428368659907544
sVLogInfo1_90_unique
p72
F0.0033785441830564175
sVLogInfo1_90_avg_count
p73
F0.021338502835282006
sVUserupdateInfo_7_HASBUYCAR
p74
F0.01733429533094715
sS'WeblogInfo_20_encoding'
p75
F0.06701260559607436
sVLogInfo1_180_avg_count
p76
F0.0136919325821798
sVThirdParty_Info_Period5_5
p77
F0.06089828491249986
sVThirdParty_Info_Period5_1
p78
F0.04665032087980101
sVThirdParty_Info_Period5_2
p79
F0.08297461312136405
sVThirdParty_Info_Period5_9
p80
F0.07751408538307557
sVLogInfo2_7_avg_count
p81
F0.019890735503716263
sVThirdParty_Info_Period2_9
p82
F0.014198720650967443
sVUserupdateInfo_7_MARRIAGESTATUSID
p83
F0.01735583845396113
sVLogInfo2_7_unique
p84
F0.00032704601207923074
sVLogInfo1_7_avg_count
p85
F0.01526188226747764
sS'WeblogInfo_19_encoding'
p86
F0.008942928006493657
sVLogInfo2_30_avg_count
p87
F0.014044641624481984
sVLogInfo2_60_unique
p88
F0.0020167073567302174
sVLogInfo2_120_avg_count
p89
F0.014917721606700695
sS'UserInfo_3_encoding'
p90
F0.016916372998841165
sVLogInfo2_120_unique
p91
F0.002167907451243147
s.